target datalayout = "e-m:e-p270:32:32-p271:32:32-p272:64:64-i64:64-i128:128-f80:128-n8:16:32:64-S128"
target triple = "x86_64-pc-linux-gnu"

; Function Attrs: nounwind uwtable
define dso_local i32 @double2ll(double noundef %0, ptr noundef %1) #0 {
  %3 = alloca i32, align 4
  %4 = alloca double, align 8
  %5 = alloca ptr, align 8
  %6 = alloca i64, align 8
  %7 = alloca i32, align 4
  store double %0, ptr %4, align 8, !tbaa !50
  store ptr %1, ptr %5, align 8, !tbaa !38
  %8 = load double, ptr %4, align 8, !tbaa !50
  %9 = fcmp olt double %8, 0xC3D0000000000000
  br i1 %9, label %13, label %10

10:                                               ; preds = %2
  %11 = load double, ptr %4, align 8, !tbaa !50
  %12 = fcmp ogt double %11, 0x43D0000000000000
  br i1 %12, label %13, label %14

13:                                               ; preds = %10, %2
  store i32 0, ptr %3, align 4
  br label %26

14:                                               ; preds = %10
  call void @llvm.lifetime.start.p0(i64 8, ptr %6) #13
  %15 = load double, ptr %4, align 8, !tbaa !50
  %16 = fptosi double %15 to i64
  store i64 %16, ptr %6, align 8, !tbaa !31
  %17 = load i64, ptr %6, align 8, !tbaa !31
  %18 = sitofp i64 %17 to double
  %19 = load double, ptr %4, align 8, !tbaa !50
  %20 = fcmp oeq double %18, %19
  br i1 %20, label %21, label %24

21:                                               ; preds = %14
  %22 = load i64, ptr %6, align 8, !tbaa !31
  %23 = load ptr, ptr %5, align 8, !tbaa !38
  store i64 %22, ptr %23, align 8, !tbaa !31
  store i32 1, ptr %3, align 4
  store i32 1, ptr %7, align 4
  br label %25

24:                                               ; preds = %14
  store i32 0, ptr %3, align 4
  store i32 1, ptr %7, align 4
  br label %25

25:                                               ; preds = %24, %21
  call void @llvm.lifetime.end.p0(i64 8, ptr %6) #13
  br label %26

26:                                               ; preds = %25, %13
  %27 = load i32, ptr %3, align 4
  ret i32 %27
}