; Function Attrs: mustprogress nofree norecurse nosync nounwind willreturn memory(argmem: write) uwtable
define dso_local range(i32 0, 2) i32 @double2ll(double noundef %0, ptr noundef writeonly captures(none) %1) local_unnamed_addr #18 {
  %3 = tail call double @llvm.fabs.f64(double %0)
  %or.cond = fcmp ogt double %3, 0x43D0000000000000
  br i1 %or.cond, label %9, label %4

4:                                                ; preds = %2
  %5 = fptosi double %0 to i64
  %6 = sitofp i64 %5 to double
  %7 = fcmp oeq double %0, %6
  br i1 %7, label %8, label %9

8:                                                ; preds = %4
  store i64 %5, ptr %1, align 8, !tbaa !35
  br label %9

9:                                                ; preds = %8, %4, %2
  %.0 = phi i32 [ 0, %2 ], [ 1, %8 ], [ 0, %4 ]
  ret i32 %.0
}